target datalayout = "e-m:e-p270:32:32-p271:32:32-p272:64:64-i64:64-i128:128-f80:128-n8:16:32:64-S128"
target triple = "x86_64-pc-linux-gnu"

%struct.slurm_conf_t = type { i64, ptr, i16, ptr, ptr, ptr, ptr, ptr, i16, ptr, ptr, ptr, ptr, ptr, ptr, ptr, i16, ptr, ptr, ptr, ptr, i16, ptr, ptr, ptr, i64, ptr, ptr, ptr, ptr, i16, ptr, ptr, i16, i32, ptr, i32, ptr, i32, i32, ptr, ptr, i64, i64, ptr, i16, i16, ptr, i32, i32, ptr, i32, ptr, i32, i16, i16, i16, ptr, i16, i16, ptr, ptr, i32, i16, i16, ptr, i32, i16, ptr, ptr, ptr, ptr, i16, ptr, ptr, ptr, ptr, i32, ptr, ptr, ptr, ptr, i16, i16, ptr, i32, i32, i32, i16, i16, ptr, ptr, i16, ptr, ptr, i32, i32, i32, i32, i32, i64, i32, i32, i16, ptr, ptr, i32, ptr, ptr, ptr, i16, i32, ptr, ptr, i16, ptr, ptr, i32, i16, ptr, ptr, ptr, ptr, i32, i32, i16, i16, i32, ptr, i16, ptr, i32, i32, i32, i32, i32, i32, ptr, i16, ptr, ptr, i32, i16, ptr, i32, i16, i16, ptr, ptr, ptr, i16, ptr, ptr, ptr, ptr, i16, i16, ptr, i16, ptr, i16, ptr, i16, ptr, i16, ptr, ptr, ptr, ptr, i16, ptr, ptr, ptr, i32, ptr, i32, ptr, ptr, i16, ptr, ptr, i32, i16, ptr, ptr, i16, i16, ptr, i16, ptr, ptr, ptr, i32, ptr, i16, i16, ptr, ptr, ptr, ptr, ptr, ptr, ptr, ptr, i16, i32, i16, ptr, ptr, ptr, ptr, i32, ptr, ptr, ptr, i16, ptr, ptr, ptr, i16, ptr, i16, ptr, i16, i16, ptr }
%struct.slurm_cred_arg_t = type { %struct.slurm_step_id_msg, i32, i32, ptr, i16, ptr, ptr, ptr, i32, ptr, ptr, ptr, ptr, ptr, ptr, ptr, i16, i64, ptr, ptr, ptr, ptr, ptr, i32, i32, ptr, i32, i16, ptr, ptr, ptr, i16, ptr, i64, ptr, ptr, ptr, i16, ptr, ptr, ptr, ptr, i32, ptr, ptr }
%struct.slurm_step_id_msg = type { i64, i32, i32, i32 }
%struct.slurm_cred_t = type { i32, %union.pthread_rwlock_t, ptr, i32, i16, ptr, i64, ptr, i8 }
%union.pthread_rwlock_t = type { %struct.__pthread_rwlock_arch_t }
%struct.__pthread_rwlock_arch_t = type { i32, i32, i32, i32, i32, i32, i32, i32, i8, [7 x i8], i64, i32 }

@slurm_conf = external global %struct.slurm_conf_t, align 8
@.str.22 = private unnamed_addr constant [40 x i8] c"Unable to find %s in job hostlist: `%s'\00", align 1
@.str.23 = private unnamed_addr constant [85 x i8] c"%s: node_id=%d, not found in job_mem_alloc_rep_count requested job memory not reset.\00", align 1
@.str.24 = private unnamed_addr constant [74 x i8] c"CPU_BIND: %s: Memory extracted from credential for %ps job_mem_limit= %lu\00", align 1
@.str.25 = private unnamed_addr constant [41 x i8] c"Unable to find %s in step hostlist: `%s'\00", align 1
@.str.26 = private unnamed_addr constant [54 x i8] c"%s: node_id=%d, not found in step_mem_alloc_rep_count\00", align 1
@.str.27 = private unnamed_addr constant [88 x i8] c"CPU_BIND: Memory extracted from credential for %ps job_mem_limit=%lu step_mem_limit=%lu\00", align 1

; Function Attrs: nounwind uwtable
define dso_local void @slurm_cred_get_mem(ptr noundef %0, ptr noundef %1, ptr noundef %2, ptr noundef %3, ptr noundef %4) #0 {
  %6 = alloca ptr, align 8
  %7 = alloca ptr, align 8
  %8 = alloca ptr, align 8
  %9 = alloca ptr, align 8
  %10 = alloca ptr, align 8
  %11 = alloca ptr, align 8
  %12 = alloca i32, align 4
  %13 = alloca i32, align 4
  %14 = alloca i32, align 4
  store ptr %0, ptr %6, align 8
  store ptr %1, ptr %7, align 8
  store ptr %2, ptr %8, align 8
  store ptr %3, ptr %9, align 8
  store ptr %4, ptr %10, align 8
  call void @llvm.lifetime.start.p0(i64 8, ptr %11) #9
  %15 = load ptr, ptr %6, align 8
  %16 = getelementptr inbounds nuw %struct.slurm_cred_t, ptr %15, i32 0, i32 5
  %17 = load ptr, ptr %16, align 8
  store ptr %17, ptr %11, align 8
  call void @llvm.lifetime.start.p0(i64 4, ptr %12) #9
  store i32 -1, ptr %12, align 4
  call void @llvm.lifetime.start.p0(i64 4, ptr %13) #9
  store i32 -1, ptr %13, align 4
  %18 = load ptr, ptr %11, align 8
  %19 = getelementptr inbounds nuw %struct.slurm_cred_arg_t, ptr %18, i32 0, i32 0
  %20 = getelementptr inbounds nuw %struct.slurm_step_id_msg, ptr %19, i32 0, i32 3
  %21 = load i32, ptr %20, align 8
  %22 = icmp eq i32 %21, -5
  br i1 %22, label %23, label %24

23:                                               ; preds = %5
  store i32 0, ptr %12, align 4
  br label %47

24:                                               ; preds = %5
  %25 = load ptr, ptr %11, align 8
  %26 = getelementptr inbounds nuw %struct.slurm_cred_arg_t, ptr %25, i32 0, i32 19
  %27 = load ptr, ptr %26, align 8
  %28 = load ptr, ptr %7, align 8
  %29 = call i32 @nodelist_find(ptr noundef %27, ptr noundef %28)
  store i32 %29, ptr %13, align 4
  %30 = icmp sge i32 %29, 0
  br i1 %30, label %31, label %40

31:                                               ; preds = %24
  %32 = load ptr, ptr %11, align 8
  %33 = getelementptr inbounds nuw %struct.slurm_cred_arg_t, ptr %32, i32 0, i32 22
  %34 = load ptr, ptr %33, align 8
  %35 = load ptr, ptr %11, align 8
  %36 = getelementptr inbounds nuw %struct.slurm_cred_arg_t, ptr %35, i32 0, i32 23
  %37 = load i32, ptr %36, align 8
  %38 = load i32, ptr %13, align 4
  %39 = call i32 @slurm_get_rep_count_inx(ptr noundef %34, i32 noundef %37, i32 noundef %38)
  store i32 %39, ptr %12, align 4
  br label %46

40:                                               ; preds = %24
  %41 = load ptr, ptr %7, align 8
  %42 = load ptr, ptr %11, align 8
  %43 = getelementptr inbounds nuw %struct.slurm_cred_arg_t, ptr %42, i32 0, i32 19
  %44 = load ptr, ptr %43, align 8
  %45 = call i32 (ptr, ...) @error(ptr noundef @.str.22, ptr noundef %41, ptr noundef %44)
  br label %46

46:                                               ; preds = %40, %31
  br label %47

47:                                               ; preds = %46, %23
  %48 = load i32, ptr %12, align 4
  %49 = icmp slt i32 %48, 0
  br i1 %49, label %50, label %54

50:                                               ; preds = %47
  %51 = load ptr, ptr %8, align 8
  %52 = load i32, ptr %13, align 4
  %53 = call i32 (ptr, ...) @error(ptr noundef @.str.23, ptr noundef %51, i32 noundef %52)
  br label %63

54:                                               ; preds = %47
  %55 = load ptr, ptr %11, align 8
  %56 = getelementptr inbounds nuw %struct.slurm_cred_arg_t, ptr %55, i32 0, i32 21
  %57 = load ptr, ptr %56, align 8
  %58 = load i32, ptr %12, align 4
  %59 = sext i32 %58 to i64
  %60 = getelementptr inbounds i64, ptr %57, i64 %59
  %61 = load i64, ptr %60, align 8
  %62 = load ptr, ptr %9, align 8
  store i64 %61, ptr %62, align 8
  br label %63

63:                                               ; preds = %54, %50
  %64 = load ptr, ptr %10, align 8
  %65 = icmp ne ptr %64, null
  br i1 %65, label %87, label %66

66:                                               ; preds = %63
  br label %67

67:                                               ; preds = %66
  %68 = load i64, ptr getelementptr inbounds nuw (%struct.slurm_conf_t, ptr @slurm_conf, i32 0, i32 42), align 8
  %69 = and i64 %68, 8
  %70 = icmp ne i64 %69, 0
  br i1 %70, label %71, label %84

71:                                               ; preds = %67
  br label %72

72:                                               ; preds = %71
  %73 = call i32 @get_log_level()
  %74 = icmp sge i32 %73, 4
  br i1 %74, label %75, label %81

75:                                               ; preds = %72
  %76 = load ptr, ptr %8, align 8
  %77 = load ptr, ptr %11, align 8
  %78 = getelementptr inbounds nuw %struct.slurm_cred_arg_t, ptr %77, i32 0, i32 0
  %79 = load ptr, ptr %9, align 8
  %80 = load i64, ptr %79, align 8
  call void (i32, ptr, ...) @log_var(i32 noundef 4, ptr noundef @.str.24, ptr noundef %76, ptr noundef %78, i64 noundef %80)
  br label %81

81:                                               ; preds = %75, %72
  br label %82

82:                                               ; preds = %81
  br label %83

83:                                               ; preds = %82
  br label %84

84:                                               ; preds = %83, %67
  br label %85

85:                                               ; preds = %84
  br label %86

86:                                               ; preds = %85
  store i32 1, ptr %14, align 4
  br label %161

87:                                               ; preds = %63
  %88 = load ptr, ptr %11, align 8
  %89 = getelementptr inbounds nuw %struct.slurm_cred_arg_t, ptr %88, i32 0, i32 40
  %90 = load ptr, ptr %89, align 8
  %91 = icmp ne ptr %90, null
  br i1 %91, label %92, label %131

92:                                               ; preds = %87
  store i32 -1, ptr %12, align 4
  %93 = load ptr, ptr %11, align 8
  %94 = getelementptr inbounds nuw %struct.slurm_cred_arg_t, ptr %93, i32 0, i32 39
  %95 = load ptr, ptr %94, align 8
  %96 = load ptr, ptr %7, align 8
  %97 = call i32 @nodelist_find(ptr noundef %95, ptr noundef %96)
  store i32 %97, ptr %13, align 4
  %98 = icmp sge i32 %97, 0
  br i1 %98, label %99, label %108

99:                                               ; preds = %92
  %100 = load ptr, ptr %11, align 8
  %101 = getelementptr inbounds nuw %struct.slurm_cred_arg_t, ptr %100, i32 0, i32 41
  %102 = load ptr, ptr %101, align 8
  %103 = load ptr, ptr %11, align 8
  %104 = getelementptr inbounds nuw %struct.slurm_cred_arg_t, ptr %103, i32 0, i32 42
  %105 = load i32, ptr %104, align 8
  %106 = load i32, ptr %13, align 4
  %107 = call i32 @slurm_get_rep_count_inx(ptr noundef %102, i32 noundef %105, i32 noundef %106)
  store i32 %107, ptr %12, align 4
  br label %114

108:                                              ; preds = %92
  %109 = load ptr, ptr %7, align 8
  %110 = load ptr, ptr %11, align 8
  %111 = getelementptr inbounds nuw %struct.slurm_cred_arg_t, ptr %110, i32 0, i32 39
  %112 = load ptr, ptr %111, align 8
  %113 = call i32 (ptr, ...) @error(ptr noundef @.str.25, ptr noundef %109, ptr noundef %112)
  br label %114

114:                                              ; preds = %108, %99
  %115 = load i32, ptr %12, align 4
  %116 = icmp slt i32 %115, 0
  br i1 %116, label %117, label %121

117:                                              ; preds = %114
  %118 = load ptr, ptr %8, align 8
  %119 = load i32, ptr %13, align 4
  %120 = call i32 (ptr, ...) @error(ptr noundef @.str.26, ptr noundef %118, i32 noundef %119)
  br label %130

121:                                              ; preds = %114
  %122 = load ptr, ptr %11, align 8
  %123 = getelementptr inbounds nuw %struct.slurm_cred_arg_t, ptr %122, i32 0, i32 40
  %124 = load ptr, ptr %123, align 8
  %125 = load i32, ptr %12, align 4
  %126 = sext i32 %125 to i64
  %127 = getelementptr inbounds i64, ptr %124, i64 %126
  %128 = load i64, ptr %127, align 8
  %129 = load ptr, ptr %10, align 8
  store i64 %128, ptr %129, align 8
  br label %130

130:                                              ; preds = %121, %117
  br label %131

131:                                              ; preds = %130, %87
  %132 = load ptr, ptr %10, align 8
  %133 = load i64, ptr %132, align 8
  %134 = icmp ne i64 %133, 0
  br i1 %134, label %139, label %135

135:                                              ; preds = %131
  %136 = load ptr, ptr %9, align 8
  %137 = load i64, ptr %136, align 8
  %138 = load ptr, ptr %10, align 8
  store i64 %137, ptr %138, align 8
  br label %139

139:                                              ; preds = %135, %131
  br label %140

140:                                              ; preds = %139
  %141 = load i64, ptr getelementptr inbounds nuw (%struct.slurm_conf_t, ptr @slurm_conf, i32 0, i32 42), align 8
  %142 = and i64 %141, 8
  %143 = icmp ne i64 %142, 0
  br i1 %143, label %144, label %158

144:                                              ; preds = %140
  br label %145

145:                                              ; preds = %144
  %146 = call i32 @get_log_level()
  %147 = icmp sge i32 %146, 4
  br i1 %147, label %148, label %155

148:                                              ; preds = %145
  %149 = load ptr, ptr %11, align 8
  %150 = getelementptr inbounds nuw %struct.slurm_cred_arg_t, ptr %149, i32 0, i32 0
  %151 = load ptr, ptr %9, align 8
  %152 = load i64, ptr %151, align 8
  %153 = load ptr, ptr %10, align 8
  %154 = load i64, ptr %153, align 8
  call void (i32, ptr, ...) @log_var(i32 noundef 4, ptr noundef @.str.27, ptr noundef %150, i64 noundef %152, i64 noundef %154)
  br label %155

155:                                              ; preds = %148, %145
  br label %156

156:                                              ; preds = %155
  br label %157

157:                                              ; preds = %156
  br label %158

158:                                              ; preds = %157, %140
  br label %159

159:                                              ; preds = %158
  br label %160

160:                                              ; preds = %159
  store i32 0, ptr %14, align 4
  br label %161

161:                                              ; preds = %160, %86
  call void @llvm.lifetime.end.p0(i64 4, ptr %13) #9
  call void @llvm.lifetime.end.p0(i64 4, ptr %12) #9
  call void @llvm.lifetime.end.p0(i64 8, ptr %11) #9
  %162 = load i32, ptr %14, align 4
  switch i32 %162, label %164 [
    i32 0, label %163
    i32 1, label %163
  ]

163:                                              ; preds = %161, %161
  ret void

164:                                              ; preds = %161
  unreachable
}