; Function Attrs: nounwind uwtable
define dso_local void @slurm_cred_get_mem(ptr noundef readonly captures(none) %0, ptr noundef %1, ptr noundef %2, ptr noundef captures(none) %3, ptr noundef captures(address_is_null) %4) local_unnamed_addr #0 {
  %6 = getelementptr inbounds nuw i8, ptr %0, i64 80
  %7 = load ptr, ptr %6, align 8
  %8 = getelementptr inbounds nuw i8, ptr %7, i64 16
  %9 = load i32, ptr %8, align 8
  %10 = icmp eq i32 %9, -5
  br i1 %10, label %.thread50, label %11

11:                                               ; preds = %5
  %12 = getelementptr inbounds nuw i8, ptr %7, i64 160
  %13 = load ptr, ptr %12, align 8
  %14 = tail call i32 @nodelist_find(ptr noundef %13, ptr noundef %1) #11
  %15 = icmp sgt i32 %14, -1
  br i1 %15, label %18, label %.thread

.thread:                                          ; preds = %11
  %16 = load ptr, ptr %12, align 8
  %17 = tail call i32 (ptr, ...) @error(ptr noundef nonnull @.str.22, ptr noundef %1, ptr noundef %16) #11
  br label %25

18:                                               ; preds = %11
  %19 = getelementptr inbounds nuw i8, ptr %7, i64 184
  %20 = load ptr, ptr %19, align 8
  %21 = getelementptr inbounds nuw i8, ptr %7, i64 192
  %22 = load i32, ptr %21, align 8
  %23 = tail call i32 @slurm_get_rep_count_inx(ptr noundef %20, i32 noundef %22, i32 noundef %14) #11
  %24 = icmp slt i32 %23, 0
  br i1 %24, label %25, label %.thread50

25:                                               ; preds = %.thread, %18
  %26 = tail call i32 (ptr, ...) @error(ptr noundef nonnull @.str.23, ptr noundef %2, i32 noundef %14) #11
  br label %32

.thread50:                                        ; preds = %5, %18
  %.03853 = phi i32 [ %23, %18 ], [ 0, %5 ]
  %27 = getelementptr inbounds nuw i8, ptr %7, i64 176
  %28 = load ptr, ptr %27, align 8
  %29 = zext nneg i32 %.03853 to i64
  %30 = getelementptr inbounds nuw i64, ptr %28, i64 %29
  %31 = load i64, ptr %30, align 8
  store i64 %31, ptr %3, align 8
  br label %32

32:                                               ; preds = %.thread50, %25
  %.not = icmp eq ptr %4, null
  br i1 %.not, label %33, label %41

33:                                               ; preds = %32
  %34 = load i64, ptr getelementptr inbounds nuw (i8, ptr @slurm_conf, i64 320), align 8
  %35 = and i64 %34, 8
  %.not43 = icmp eq i64 %35, 0
  br i1 %.not43, label %78, label %36

36:                                               ; preds = %33
  %37 = tail call i32 @get_log_level() #11
  %38 = icmp sgt i32 %37, 3
  br i1 %38, label %39, label %78

39:                                               ; preds = %36
  %40 = load i64, ptr %3, align 8
  tail call void (i32, ptr, ...) @log_var(i32 noundef 4, ptr noundef nonnull @.str.24, ptr noundef %2, ptr noundef nonnull %7, i64 noundef %40) #11
  br label %78

41:                                               ; preds = %32
  %42 = getelementptr inbounds nuw i8, ptr %7, i64 312
  %43 = load ptr, ptr %42, align 8
  %.not44 = icmp eq ptr %43, null
  br i1 %.not44, label %thread-pre-split, label %44

44:                                               ; preds = %41
  %45 = getelementptr inbounds nuw i8, ptr %7, i64 304
  %46 = load ptr, ptr %45, align 8
  %47 = tail call i32 @nodelist_find(ptr noundef %46, ptr noundef %1) #11
  %48 = icmp sgt i32 %47, -1
  br i1 %48, label %51, label %.thread54

.thread54:                                        ; preds = %44
  %49 = load ptr, ptr %45, align 8
  %50 = tail call i32 (ptr, ...) @error(ptr noundef nonnull @.str.25, ptr noundef %1, ptr noundef %49) #11
  br label %58

51:                                               ; preds = %44
  %52 = getelementptr inbounds nuw i8, ptr %7, i64 320
  %53 = load ptr, ptr %52, align 8
  %54 = getelementptr inbounds nuw i8, ptr %7, i64 328
  %55 = load i32, ptr %54, align 8
  %56 = tail call i32 @slurm_get_rep_count_inx(ptr noundef %53, i32 noundef %55, i32 noundef %47) #11
  %57 = icmp slt i32 %56, 0
  br i1 %57, label %58, label %60

58:                                               ; preds = %.thread54, %51
  %59 = tail call i32 (ptr, ...) @error(ptr noundef nonnull @.str.26, ptr noundef %2, i32 noundef %47) #11
  br label %thread-pre-split

60:                                               ; preds = %51
  %61 = load ptr, ptr %42, align 8
  %62 = zext nneg i32 %56 to i64
  %63 = getelementptr inbounds nuw i64, ptr %61, i64 %62
  %64 = load i64, ptr %63, align 8
  store i64 %64, ptr %4, align 8
  br label %65

thread-pre-split:                                 ; preds = %41, %58
  %.pr = load i64, ptr %4, align 8
  br label %65

65:                                               ; preds = %thread-pre-split, %60
  %66 = phi i64 [ %.pr, %thread-pre-split ], [ %64, %60 ]
  %.not45 = icmp eq i64 %66, 0
  br i1 %.not45, label %67, label %69

67:                                               ; preds = %65
  %68 = load i64, ptr %3, align 8
  store i64 %68, ptr %4, align 8
  br label %69

69:                                               ; preds = %65, %67
  %70 = load i64, ptr getelementptr inbounds nuw (i8, ptr @slurm_conf, i64 320), align 8
  %71 = and i64 %70, 8
  %.not46 = icmp eq i64 %71, 0
  br i1 %.not46, label %78, label %72

72:                                               ; preds = %69
  %73 = tail call i32 @get_log_level() #11
  %74 = icmp sgt i32 %73, 3
  br i1 %74, label %75, label %78

75:                                               ; preds = %72
  %76 = load i64, ptr %3, align 8
  %77 = load i64, ptr %4, align 8
  tail call void (i32, ptr, ...) @log_var(i32 noundef 4, ptr noundef nonnull @.str.27, ptr noundef nonnull %7, i64 noundef %76, i64 noundef %77) #11
  br label %78

78:                                               ; preds = %69, %75, %72, %33, %39, %36
  ret void
}